	.file	"code.c"
# GNU C17 (Ubuntu 11.4.0-1ubuntu1~22.04) version 11.4.0 (x86_64-linux-gnu)
#	compiled by GNU C version 11.4.0, GMP version 6.2.1, MPFR version 4.1.0, MPC version 1.2.1, isl version isl-0.24-GMP

# GGC heuristics: --param ggc-min-expand=100 --param ggc-min-heapsize=131072
# options passed: -mtune=generic -march=x86-64 -O2 -fasynchronous-unwind-tables -fstack-protector-strong -fstack-clash-protection -fcf-protection
	.text
	.p2align 4
	.globl	func0
	.type	func0, @function
func0:
.LFB23:
	.cfi_startproc
	endbr64	
# eval/problem158/code.c:4: int func0(float a, float b, float c) {
	movaps	%xmm0, %xmm3	# a, tmp124
# eval/problem158/code.c:5:     if (fabs(a*a + b*b - c*c) < 1e-4 || fabs(a*a + c*c - b*b) < 1e-4 || fabs(b*b + c*c - a*a) < 1e-4) return 1;
	movsd	.LC1(%rip), %xmm4	#, tmp107
# eval/problem158/code.c:5:     if (fabs(a*a + b*b - c*c) < 1e-4 || fabs(a*a + c*c - b*b) < 1e-4 || fabs(b*b + c*c - a*a) < 1e-4) return 1;
	movss	.LC0(%rip), %xmm5	#, tmp105
# eval/problem158/code.c:5:     if (fabs(a*a + b*b - c*c) < 1e-4 || fabs(a*a + c*c - b*b) < 1e-4 || fabs(b*b + c*c - a*a) < 1e-4) return 1;
	movl	$1, %eax	#, <retval>
# eval/problem158/code.c:5:     if (fabs(a*a + b*b - c*c) < 1e-4 || fabs(a*a + c*c - b*b) < 1e-4 || fabs(b*b + c*c - a*a) < 1e-4) return 1;
	mulss	%xmm0, %xmm3	# tmp124, _1
# eval/problem158/code.c:5:     if (fabs(a*a + b*b - c*c) < 1e-4 || fabs(a*a + c*c - b*b) < 1e-4 || fabs(b*b + c*c - a*a) < 1e-4) return 1;
	mulss	%xmm1, %xmm1	# tmp125, _2
# eval/problem158/code.c:5:     if (fabs(a*a + b*b - c*c) < 1e-4 || fabs(a*a + c*c - b*b) < 1e-4 || fabs(b*b + c*c - a*a) < 1e-4) return 1;
	mulss	%xmm2, %xmm2	# tmp126, _4
# eval/problem158/code.c:5:     if (fabs(a*a + b*b - c*c) < 1e-4 || fabs(a*a + c*c - b*b) < 1e-4 || fabs(b*b + c*c - a*a) < 1e-4) return 1;
	movaps	%xmm3, %xmm0	# _1, tmp102
	addss	%xmm1, %xmm0	# _2, tmp102
# eval/problem158/code.c:5:     if (fabs(a*a + b*b - c*c) < 1e-4 || fabs(a*a + c*c - b*b) < 1e-4 || fabs(b*b + c*c - a*a) < 1e-4) return 1;
	subss	%xmm2, %xmm0	# _4, tmp103
# eval/problem158/code.c:5:     if (fabs(a*a + b*b - c*c) < 1e-4 || fabs(a*a + c*c - b*b) < 1e-4 || fabs(b*b + c*c - a*a) < 1e-4) return 1;
	andps	%xmm5, %xmm0	# tmp105, tmp104
	cvtss2sd	%xmm0, %xmm0	# tmp104, tmp106
# eval/problem158/code.c:5:     if (fabs(a*a + b*b - c*c) < 1e-4 || fabs(a*a + c*c - b*b) < 1e-4 || fabs(b*b + c*c - a*a) < 1e-4) return 1;
	comisd	%xmm0, %xmm4	# tmp106, tmp107
	ja	.L1	#,
# eval/problem158/code.c:5:     if (fabs(a*a + b*b - c*c) < 1e-4 || fabs(a*a + c*c - b*b) < 1e-4 || fabs(b*b + c*c - a*a) < 1e-4) return 1;
	movaps	%xmm3, %xmm0	# _1, tmp108
	addss	%xmm2, %xmm0	# _4, tmp108
# eval/problem158/code.c:5:     if (fabs(a*a + b*b - c*c) < 1e-4 || fabs(a*a + c*c - b*b) < 1e-4 || fabs(b*b + c*c - a*a) < 1e-4) return 1;
	subss	%xmm1, %xmm0	# _2, tmp109
# eval/problem158/code.c:5:     if (fabs(a*a + b*b - c*c) < 1e-4 || fabs(a*a + c*c - b*b) < 1e-4 || fabs(b*b + c*c - a*a) < 1e-4) return 1;
	andps	%xmm5, %xmm0	# tmp105, tmp110
	cvtss2sd	%xmm0, %xmm0	# tmp110, tmp112
# eval/problem158/code.c:5:     if (fabs(a*a + b*b - c*c) < 1e-4 || fabs(a*a + c*c - b*b) < 1e-4 || fabs(b*b + c*c - a*a) < 1e-4) return 1;
	comisd	%xmm0, %xmm4	# tmp112, tmp107
	ja	.L1	#,
# eval/problem158/code.c:5:     if (fabs(a*a + b*b - c*c) < 1e-4 || fabs(a*a + c*c - b*b) < 1e-4 || fabs(b*b + c*c - a*a) < 1e-4) return 1;
	addss	%xmm2, %xmm1	# _4, tmp114
# eval/problem158/code.c:5:     if (fabs(a*a + b*b - c*c) < 1e-4 || fabs(a*a + c*c - b*b) < 1e-4 || fabs(b*b + c*c - a*a) < 1e-4) return 1;
	xorl	%eax, %eax	# <retval>
# eval/problem158/code.c:5:     if (fabs(a*a + b*b - c*c) < 1e-4 || fabs(a*a + c*c - b*b) < 1e-4 || fabs(b*b + c*c - a*a) < 1e-4) return 1;
	subss	%xmm3, %xmm1	# _1, tmp115
# eval/problem158/code.c:5:     if (fabs(a*a + b*b - c*c) < 1e-4 || fabs(a*a + c*c - b*b) < 1e-4 || fabs(b*b + c*c - a*a) < 1e-4) return 1;
	andps	%xmm5, %xmm1	# tmp105, tmp116
	cvtss2sd	%xmm1, %xmm1	# tmp116, tmp118
# eval/problem158/code.c:5:     if (fabs(a*a + b*b - c*c) < 1e-4 || fabs(a*a + c*c - b*b) < 1e-4 || fabs(b*b + c*c - a*a) < 1e-4) return 1;
	comisd	%xmm1, %xmm4	# tmp118, tmp107
	seta	%al	#, <retval>
.L1:
# eval/problem158/code.c:7: }
	ret	
	.cfi_endproc
.LFE23:
	.size	func0, .-func0
	.section	.rodata.cst16,"aM",@progbits,16
	.align 16
.LC0:
	.long	2147483647
	.long	0
	.long	0
	.long	0
	.section	.rodata.cst8,"aM",@progbits,8
	.align 8
.LC1:
	.long	-350469331
	.long	1058682594
	.ident	"GCC: (Ubuntu 11.4.0-1ubuntu1~22.04) 11.4.0"
	.section	.note.GNU-stack,"",@progbits
	.section	.note.gnu.property,"a"
	.align 8
	.long	1f - 0f
	.long	4f - 1f
	.long	5
0:
	.string	"GNU"
1:
	.align 8
	.long	0xc0000002
	.long	3f - 2f
2:
	.long	0x3
3:
	.align 8
4:
